; Function Attrs: nounwind uwtable
define noundef ptr @glfwCreateStandardCursor(i32 noundef %0) local_unnamed_addr #0 {
  %2 = load i32, ptr @_glfw, align 8, !tbaa !170
  %.not = icmp eq i32 %2, 0
  br i1 %.not, label %3, label %4

3:                                                ; preds = %1
  tail call void (i32, ptr, ...) @_glfwInputError(i32 noundef 65537, ptr noundef null) #12
  br label %glfwDestroyCursor.exit

4:                                                ; preds = %1
  %5 = add i32 %0, -221195
  %or.cond17 = icmp ult i32 %5, -10
  br i1 %or.cond17, label %6, label %7

6:                                                ; preds = %4
  tail call void (i32, ptr, ...) @_glfwInputError(i32 noundef 65539, ptr noundef nonnull @.str.402, i32 noundef %0) #12
  br label %glfwDestroyCursor.exit

7:                                                ; preds = %4
  %8 = tail call ptr @_glfw_calloc(i64 noundef 1, i64 noundef 64) #12
  %9 = load ptr, ptr getelementptr inbounds nuw (i8, ptr @_glfw, i64 1904), align 8, !tbaa !184
  store ptr %9, ptr %8, align 8, !tbaa !185
  store ptr %8, ptr getelementptr inbounds nuw (i8, ptr @_glfw, i64 1904), align 8, !tbaa !184
  %10 = load ptr, ptr getelementptr inbounds nuw (i8, ptr @_glfw, i64 112), align 8, !tbaa !196
  %11 = tail call i32 %10(ptr noundef nonnull %8, i32 noundef %0) #12
  %.not34 = icmp eq i32 %11, 0
  br i1 %.not34, label %12, label %glfwDestroyCursor.exit

12:                                               ; preds = %7
  %13 = load i32, ptr @_glfw, align 8, !tbaa !170
  %.not.i = icmp eq i32 %13, 0
  br i1 %.not.i, label %14, label %.preheader.i

14:                                               ; preds = %12
  tail call void (i32, ptr, ...) @_glfwInputError(i32 noundef 65537, ptr noundef null) #12
  br label %glfwDestroyCursor.exit

.preheader.i:                                     ; preds = %12
  %.01419.i = load ptr, ptr getelementptr inbounds nuw (i8, ptr @_glfw, i64 1912), align 8, !tbaa !191
  %.not1720.i = icmp eq ptr %.01419.i, null
  br i1 %.not1720.i, label %._crit_edge.i, label %.lr.ph.i

.lr.ph.i:                                         ; preds = %.preheader.i, %glfwSetCursor.exit.i
  %.01421.i = phi ptr [ %.014.i, %glfwSetCursor.exit.i ], [ %.01419.i, %.preheader.i ]
  %15 = getelementptr inbounds nuw i8, ptr %.01421.i, i64 88
  %16 = load ptr, ptr %15, align 8, !tbaa !192
  %17 = icmp eq ptr %16, %8
  br i1 %17, label %18, label %glfwSetCursor.exit.i

18:                                               ; preds = %.lr.ph.i
  %19 = load i32, ptr @_glfw, align 8, !tbaa !170
  %.not.i.i = icmp eq i32 %19, 0
  br i1 %.not.i.i, label %20, label %21

20:                                               ; preds = %18
  tail call void (i32, ptr, ...) @_glfwInputError(i32 noundef 65537, ptr noundef null) #12
  br label %glfwSetCursor.exit.i

21:                                               ; preds = %18
  store ptr null, ptr %15, align 8, !tbaa !192
  %22 = load ptr, ptr getelementptr inbounds nuw (i8, ptr @_glfw, i64 128), align 8, !tbaa !193
  tail call void %22(ptr noundef nonnull %.01421.i, ptr noundef null) #12
  br label %glfwSetCursor.exit.i

glfwSetCursor.exit.i:                             ; preds = %21, %20, %.lr.ph.i
  %.014.i = load ptr, ptr %.01421.i, align 8, !tbaa !191
  %.not17.i = icmp eq ptr %.014.i, null
  br i1 %.not17.i, label %._crit_edge.i, label %.lr.ph.i

._crit_edge.i:                                    ; preds = %glfwSetCursor.exit.i, %.preheader.i
  %23 = load ptr, ptr getelementptr inbounds nuw (i8, ptr @_glfw, i64 120), align 8, !tbaa !194
  tail call void %23(ptr noundef nonnull %8) #12
  br label %24

24:                                               ; preds = %24, %._crit_edge.i
  %.0.i = phi ptr [ getelementptr inbounds nuw (i8, ptr @_glfw, i64 1904), %._crit_edge.i ], [ %25, %24 ]
  %25 = load ptr, ptr %.0.i, align 8, !tbaa !195
  %.not18.i = icmp eq ptr %25, %8
  br i1 %.not18.i, label %26, label %24

26:                                               ; preds = %24
  %27 = load ptr, ptr %8, align 8, !tbaa !185
  store ptr %27, ptr %.0.i, align 8, !tbaa !195
  tail call void @_glfw_free(ptr noundef nonnull %8) #12
  br label %glfwDestroyCursor.exit

glfwDestroyCursor.exit:                           ; preds = %26, %14, %7, %6, %3
  %.0 = phi ptr [ null, %6 ], [ null, %3 ], [ %8, %7 ], [ null, %14 ], [ null, %26 ]
  ret ptr %.0
}